; Function Attrs: null_pointer_is_valid sspstrong uwtable
define internal i32 @dissect_ulp_UlpMessage(ptr noundef %0, i32 noundef %1, ptr noundef %2, ptr noundef %3, i32 noundef %4) #0 {
  %6 = alloca i32, align 4
  call void @llvm.lifetime.start.p0(i64 4, ptr nonnull %6) #8
  %7 = load i32, ptr @ett_ulp_UlpMessage, align 4
  %8 = call i32 @dissect_per_choice(ptr noundef %0, i32 noundef %1, ptr noundef %2, ptr noundef %3, i32 noundef %4, i32 noundef %7, ptr noundef nonnull @UlpMessage_choice, ptr noundef nonnull %6)
  %9 = getelementptr inbounds nuw i8, ptr %2, i64 16
  %10 = load ptr, ptr %9, align 8
  %11 = getelementptr inbounds nuw i8, ptr %10, i64 8
  %12 = load ptr, ptr %11, align 8
  %13 = load i32, ptr %6, align 4
  %14 = call ptr @val_to_str_const(i32 noundef %13, ptr noundef nonnull @ulp_UlpMessage_vals, ptr noundef nonnull @.str.1722)
  call void (ptr, i32, ptr, ...) @col_prepend_fstr(ptr noundef %12, i32 noundef 25, ptr noundef nonnull @.str.1721, ptr noundef %14)
  call void @llvm.lifetime.end.p0(i64 4, ptr nonnull %6) #8
  ret i32 %8
}